Turbo Assembler	 Version 4.1	    11/13/24 11:22:14	    Page 1
MAIN.ASM



      1	0000			     .model small
      2	0000			     .stack
      3
      4	0000			     .data
      5	0000  00			 menu db 0H
      6
      7					 ; Strings para	o título e botões
      8	0001  20 20 20 20 20 20	20+	 string	db "								       ",13,10
      9	      20 20 20 20 20 20	20+
     10	      20 20 20 20 20 20	20+
     11	      20 20 20 20 20 20	20+
     12	      20 20 20 20 20 20	20+
     13	      20 20 20 20 20 20	20+
     14	      20 20 20 20 20 20	20+
     15	      20 20 20 20 20 20	20+
     16	      20 20 20 20 20 20	20+
     17	      20 20 20 20 0D 0A
     18	0046  20 20 20 20 20 20	20+		db "		      ____  __.		  _________ __		       ",13,10
     19	      20 20 20 20 20 20	20+
     20	      20 20 20 20 5F 5F	5F+
     21	      5F 20 20 5F 5F 2E	20+
     22	      20 20 20 20 20 20	20+
     23	      20 20 20 5F 5F 5F	5F+
     24	      5F 5F 5F 5F 5F 20	5F+
     25	      5F 20 20 20 20 20	20+
     26	      20 20 20 20 20 20	20+
     27	      20 20 20 20 0D 0A
     28	008B  20 20 20 20 20 20	20+		db "		     |	  |/ _|		 /   _____//  |______ _______  ",13,10
     29	      20 20 20 20 20 20	20+
     30	      20 20 20 7C 20 20	20+
     31	      20 7C 2F 20 5F 7C	20+
     32	      20 20 20 20 20 20	20+
     33	      20 20 2F 20 20 20	5F+
     34	      5F 5F 5F 5F 2F 2F	20+
     35	      20 7C 5F 5F 5F 5F	5F+
     36	      5F 20 5F 5F 5F 5F	5F+
     37	      5F 5F 20 20 0D 0A
     38	00D0  20 20 20 20 20 20	20+		db "		     |	    <	 ______	 \_____	 \\   __\__  \\_  __ \ ",13,10
     39	      20 20 20 20 20 20	20+
     40	      20 20 20 7C 20 20	20+
     41	      20 20 20 3C 20 20	20+
     42	      20 5F 5F 5F 5F 5F	5F+
     43	      20 20 5C 5F 5F 5F	5F+
     44	      5F 20 20 5C 5C 20	20+
     45	      20 5F 5F 5C 5F 5F	20+
     46	      20 5C 5C 5F 20 20	5F+
     47	      5F 20 5C 20 0D 0A
     48	0115  20 20 20 20 20 20	20+		db "		     |	  |  \	/_____/	 /	  \|  |	 / __ \|  | \/ ",13,10
     49	      20 20 20 20 20 20	20+
     50	      20 20 20 7C 20 20	20+
     51	      20 7C 20 20 5C 20	20+
     52	      2F 5F 5F 5F 5F 5F	2F+
     53	      20 20 2F 20 20 20	20+
     54	      20 20 20 20 5C 7C	20+
     55	      20 7C 20 20 2F 20	5F+
     56	      5F 20 5C 7C 20 20	7C+
     57	      20 5C 2F 20 0D 0A
Turbo Assembler	 Version 4.1	    11/13/24 11:22:14	    Page 2
MAIN.ASM



     58	015A  20 20 20 20 20 20	20+		db "		     |____|__ \		/_______  /|__|	(____  /__|    ",13,10
     59	      20 20 20 20 20 20	20+
     60	      20 20 20 7C 5F 5F	5F+
     61	      5F 7C 5F 5F 20 5C	20+
     62	      20 20 20 20 20 20	20+
     63	      20 2F 5F 5F 5F 5F	5F+
     64	      5F 5F 20 20 2F 7C	5F+
     65	      5F 7C 20 28 5F 5F	5F+
     66	      5F 20 20 2F 5F 5F	7C+
     67	      20 20 20 20 0D 0A
     68	019F  20 20 20 20 20 20	20+		db "		     __________	       __	\/	 .__ \/	       ",13,10
     69	      20 20 20 20 20 20	20+
     70	      20 20 20 5F 5F 5F	5F+
     71	      5F 5F 5F 5F 5F 5F	20+
     72	      20 20 20 20 20 20	20+
     73	      5F 5F 20 20 20 20	20+
     74	      20 20 5C 2F 20 20	20+
     75	      20 20 20 20 2E 5F	5F+
     76	      20 5C 2F 20 20 20	20+
     77	      20 20 20 20 0D 0A
     78	01E4  20 20 20 20 20 20	20+		db "		     \______   \____ _/	 |________  ____ |  |	       ",13,10
     79	      20 20 20 20 20 20	20+
     80	      20 20 20 5C 5F 5F	5F+
     81	      5F 5F 5F 20 20 20	5C+
     82	      5F 5F 5F 5F 20 5F	2F+
     83	      20 20 7C 5F 5F 5F	5F+
     84	      5F 5F 5F 5F 20 20	5F+
     85	      5F 5F 5F 20 7C 20	20+
     86	      7C 20 20 20 20 20	20+
     87	      20 20 20 20 0D 0A
     88	0229  20 20 20 20 20 20	20+		db "		      |	    ___|__  \\	 __\_  __ \/  _	\|  |	       ",13,10
     89	      20 20 20 20 20 20	20+
     90	      20 20 20 20 7C 20	20+
     91	      20 20 20 5F 5F 5F	7C+
     92	      5F 5F 20 20 5C 5C	20+
     93	      20 20 5F 5F 5C 5F	20+
     94	      20 5F 5F 20 5C 2F	20+
     95	      20 5F 20 5C 7C 20	20+
     96	      7C 20 20 20 20 20	20+
     97	      20 20 20 20 0D 0A
     98	026E  20 20 20 20 20 20	20+		db "		      |	   |	/ __ \|	 |  |  | \(  <_> )  |__	       ",13,10
     99	      20 20 20 20 20 20	20+
    100	      20 20 20 20 7C 20	20+
    101	      20 20 7C 20 20 20	20+
    102	      2F 20 5F 5F 20 5C	7C+
    103	      20 20 7C 20 20 7C	20+
    104	      20 7C 20 5C 28 20	20+
    105	      3C 5F 3E 20 29 20	20+
    106	      7C 5F 5F 20 20 20	20+
    107	      20 20 20 20 0D 0A
    108	02B3  20 20 20 20 20 20	20+		db "		      |____|   (____  /__|  |__|   \____/|____/	       ",13,10
    109	      20 20 20 20 20 20	20+
    110	      20 20 20 20 7C 5F	5F+
    111	      5F 5F 7C 20 20 20	28+
    112	      5F 5F 5F 5F 20 20	2F+
    113	      5F 5F 7C 20 20 7C	5F+
    114	      5F 7C 20 20 20 5C	5F+
Turbo Assembler	 Version 4.1	    11/13/24 11:22:14	    Page 3
MAIN.ASM



    115	      5F 5F 5F 2F 7C 5F	5F+
    116	      5F 5F 2F 20 20 20	20+
    117	      20 20 20 20 0D 0A
    118	02F8  20 20 20 20 20 20	20+		db "				    \/				       ",13,10
    119	      20 20 20 20 20 20	20+
    120	      20 20 20 20 20 20	20+
    121	      20 20 20 20 20 20	20+
    122	      20 20 20 20 5C 2F	20+
    123	      20 20 20 20 20 20	20+
    124	      20 20 20 20 20 20	20+
    125	      20 20 20 20 20 20	20+
    126	      20 20 20 20 20 20	20+
    127	      20 20 20 20 0D 0A
    128	033D  20 20 20 20 20 20	20+		db "								       ",13,10
    129	      20 20 20 20 20 20	20+
    130	      20 20 20 20 20 20	20+
    131	      20 20 20 20 20 20	20+
    132	      20 20 20 20 20 20	20+
    133	      20 20 20 20 20 20	20+
    134	      20 20 20 20 20 20	20+
    135	      20 20 20 20 20 20	20+
    136	      20 20 20 20 20 20	20+
    137	      20 20 20 20 0D 0A
    138
    139
    140	      =0381				string_length equ $-string
    141
    142	0382  20 20 20 20 20 20	20+	 botao_iniciar db "				     ",218,196,196,196,196,196,196,196,196, +
    143	      20 20 20 20 20 20	20+  196,191,10,13
    144	      20 20 20 20 20 20	20+
    145	      20 20 20 20 20 20	20+
    146	      20 20 20 20 20 20	DA+
    147	      C4 C4 C4 C4 C4 C4	C4+
    148	      C4 C4 BF 0A 0D
    149	03B1  20 20 20 20 20 20	20+		      db "				    ",179," INICIAR ",179,10,13
    150	      20 20 20 20 20 20	20+
    151	      20 20 20 20 20 20	20+
    152	      20 20 20 20 20 20	20+
    153	      20 20 20 20 20 20	B3+
    154	      20 49 4E 49 43 49	41+
    155	      52 20 B3 0A 0D
    156	03E0  20 20 20 20 20 20	20+		      db "				    ",192,196,196,196,196,196,196,196,196,  +
    157	      20 20 20 20 20 20	20+  196,217,10,13,"$"
    158	      20 20 20 20 20 20	20+
    159	      20 20 20 20 20 20	20+
    160	      20 20 20 20 20 20	C0+
    161	      C4 C4 C4 C4 C4 C4	C4+
    162	      C4 C4 D9 0A 0D 24
    163
    164	0410  20 20 20 20 20 20	20+	 botao_sair db "				  ",218,196,196,196,196,196,196,196,196,196,+
    165	      20 20 20 20 20 20	20+  191,10,13
    166	      20 20 20 20 20 20	20+
    167	      20 20 20 20 20 20	20+
    168	      20 20 20 20 20 20	DA+
    169	      C4 C4 C4 C4 C4 C4	C4+
    170	      C4 C4 BF 0A 0D
    171	043F  20 20 20 20 20 20	20+		   db "					 ",179,"  SAIR	 ",179,10,13
Turbo Assembler	 Version 4.1	    11/13/24 11:22:14	    Page 4
MAIN.ASM



    172	      20 20 20 20 20 20	20+
    173	      20 20 20 20 20 20	20+
    174	      20 20 20 20 20 20	20+
    175	      20 20 20 20 20 20	B3+
    176	      20 20 53 41 49 52	20+
    177	      20 20 B3 0A 0D
    178	046E  20 20 20 20 20 20	20+		   db "					 ",192,196,196,196,196,196,196,196,196,196, +
    179	      20 20 20 20 20 20	20+  217,10,13,"$"
    180	      20 20 20 20 20 20	20+
    181	      20 20 20 20 20 20	20+
    182	      20 20 20 20 20 20	C0+
    183	      C4 C4 C4 C4 C4 C4	C4+
    184	      C4 C4 D9 0A 0D 24
    185
    186	049E			     .code
    187
    188				     ; Procedimento para navegação no	menu usando as setas
    189	0000			     NAVIGATE proc
    190	0000  80 FC 72			 cmp ah, 72H	; Código para seta para cima
    191	0003  74 08			 je ARROW_UP
    192	0005  80 FC 80			 cmp ah, 80H	; Código para seta para baixo
    193	0008  74 06			 je ARROW_DOWN
    194	000A  EB 07 90			 jmp FIM_NAVIGATE
    195
    196	000D			     ARROW_UP:
    197					 ; Código para	navegar	para cima
    198	000D  EB 04 90			 jmp FIM_NAVIGATE
    199
    200	0010			     ARROW_DOWN:
    201					 ; Código para	navegar	para baixo
    202	0010  EB 01 90			 jmp FIM_NAVIGATE
    203
    204	0013			     FIM_NAVIGATE:
    205	0013  C3			 ret
    206	0014			     NAVIGATE endp
    207
    208	0014			     PRINT_TITLE_MENU proc
    209					 ; Posiciona o cursor e	exibe o	título
    210					 ; mov dl, 0	  ; Coluna
    211					 ; mov dh, 2	  ; Linha
    212					 ; mov ah, 2h
    213					 ; int 10h
    214
    215
    216					 ; mov bl,0ah
    217
    218					 ; ; Exibe o título na	tela
    219					 ; mov dx, offset string
    220					 ; mov ah, 9H
    221					 ; int 21h
    222
    223	0014  8C D8			 mov AX, DS
    224	0016  8E C0			 mov ES, AX
    225
    226	0018  BD 0001r			 mov BP, OFFSET	string
    227	001B  B9 0381			 mov CX, string_length ; tamanho
    228	001E  B3 0A			 mov BL, 0AH ; cor
Turbo Assembler	 Version 4.1	    11/13/24 11:22:14	    Page 5
MAIN.ASM



    229	0020  B2 02			 mov DL, 2 ;coluna
    230	0022  B6 02			 mov DH, 2 ; linha
    231
    232	0024  E8 0001			 call print_string
    233
    234	0027  C3			 ret
    235	0028			     PRINT_TITLE_MENU endp
    236
    237	0028			     print_string PROC
    238	0028  50			 push AX
    239	0029  53			 push BX
    240	002A  51			 push CX
    241	002B  52			 push DX
    242	002C  56			 push SI
    243	002D  55			 push BP
    244
    245					 ; Configura os	parâmetros para a função 13h
    246	002E  B4 13			 mov AH, 13h	     ; Função	para escrever string com atributos de cor
    247	0030  B0 01			 mov AL, 1	     ; Modo: atualiza cursor após a escrita
    248							      ;	AL = 1 -> modo de atualização	de cursor
    249	0032  B3 02			 mov BL, 02h	     ; Cor verde (se bit 1 de AL estiver limpo,	usamos BL)
    250	0034  B7 00			 mov BH, 0	     ; Página de vídeo 0
    251	0036  B9 0381			 mov CX, string_length ; Tamanho da string
    252	0039  B2 02			 mov DL, 2	     ; Coluna inicial
    253	003B  B6 02			 mov DH, 2	     ; Linha inicial
    254	003D  BD 0001r			 mov BP, OFFSET	string ; Ponteiro para a string
    255
    256	0040  CD 10			 int 10h	     ; Chamada de interrupção	para exibir a string
    257
    258	0042  5D			 pop BP
    259	0043  5E			 pop SI
    260	0044  5A			 pop DX
    261	0045  59			 pop CX
    262	0046  5B			 pop BX
    263	0047  58			 pop AX
    264	0048  C3			 ret
    265	0049			     print_string ENDP
    266
    267
    268
    269				     ; Procedimento para exibir	os botões INICIAR e SAIR
    270	0049			     PRINT_BUTTONS proc
    271					 ; Exibe o botão INICIAR
    272	0049  B2 00			 mov dl, 0
    273	004B  B6 10			 mov dh, 16
    274	004D  B4 02			 mov ah, 2h
    275	004F  CD 10			 int 10h
    276	0051  BA 0382r			 mov dx, offset	botao_iniciar
    277	0054  B4 09			 mov ah, 9H
    278	0056  CD 21			 int 21h
    279
    280					 ; Exibe o botão SAIR
    281	0058  B6 12			 mov dh, 18
    282	005A  BA 0410r			 mov dx, offset	botao_sair
    283	005D  B4 09			 mov ah, 9H
    284	005F  CD 21			 int 21h
    285	0061  C3			 ret
Turbo Assembler	 Version 4.1	    11/13/24 11:22:14	    Page 6
MAIN.ASM



    286	0062			     PRINT_BUTTONS endp
    287
    288				     ; Procedimento principal
    289	0062			     main proc
    290	0062  B8 0000s			 mov AX, @data
    291	0065  8E D8			 mov DS, AX
    292
    293					 ; Define o modo texto
    294	0067  B0 03			 mov al, 3h
    295	0069  B4 00			 mov ah, 0h
    296	006B  CD 10			 int 10h
    297
    298					 ; Exibe título e botões do menu
    299	006D  E8 FFA4			 call PRINT_TITLE_MENU
    300	0070  E8 FFD6			 call PRINT_BUTTONS
    301
    302	0073			     LACO_MENU:
    303					 ; Espera por entrada do usuário
    304	0073  B4 01			 mov ah, 1H
    305	0075  CD 16			 int 16H
    306	0077  74 FA			 jz LACO_MENU
    307
    308					 ; Chama a função de navegação
    309	0079  E8 FF84			 call NAVIGATE
    310
    311					 ; Condição para iniciar o jogo
    312	007C  3C 71			 cmp al, 'q'
    313	007E  74 06			 je INICIA_JOGO
    314
    315					 ; Retorno ao loop do menu
    316	0080  B4 00			 mov ah, 0H
    317	0082  CD 16			 int 16H
    318	0084  EB ED			 jmp LACO_MENU
    319
    320	0086			     INICIA_JOGO:
    321					 ; Código para	iniciar	o jogo
    322
    323					 ; Encerra o programa
    324	0086  B4 4C			 mov ah, 4ch
    325	0088  B0 00			 mov al, 0
    326	008A  CD 21			 int 21h
    327	008C  C3			 ret
    328	008D			     main endp
    329
    330				     end main
Turbo Assembler	 Version 4.1	    11/13/24 11:22:14	    Page 7
Symbol Table




Symbol Name			  Type	 Value

??DATE				  Text	 "11/13/24"
??FILENAME			  Text	 "MAIN	  "
??TIME				  Text	 "11:22:13"
??VERSION			  Number 040A
@32BIT				  Text	 0
@CODE				  Text	 _TEXT
@CODESIZE			  Text	 0
@CPU				  Text	 0101H
@CURSEG				  Text	 _TEXT
@DATA				  Text	 DGROUP
@DATASIZE			  Text	 0
@FILENAME			  Text	 MAIN
@INTERFACE			  Text	 000H
@MODEL				  Text	 2
@STACK				  Text	 DGROUP
@WORDSIZE			  Text	 2
ARROW_DOWN			  Near	 _TEXT:0010
ARROW_UP			  Near	 _TEXT:000D
BOTAO_INICIAR			  Byte	 DGROUP:0382
BOTAO_SAIR			  Byte	 DGROUP:0410
FIM_NAVIGATE			  Near	 _TEXT:0013
INICIA_JOGO			  Near	 _TEXT:0086
LACO_MENU			  Near	 _TEXT:0073
MAIN				  Near	 _TEXT:0062
MENU				  Byte	 DGROUP:0000
NAVIGATE			  Near	 _TEXT:0000
PRINT_BUTTONS			  Near	 _TEXT:0049
PRINT_STRING			  Near	 _TEXT:0028
PRINT_TITLE_MENU		  Near	 _TEXT:0014
STRING				  Byte	 DGROUP:0001
STRING_LENGTH			  Number 0381

Groups & Segments		  Bit Size Align  Combine Class

DGROUP				  Group
  STACK				  16  0400 Para	  Stack	  STACK
  _DATA				  16  049E Word	  Public  DATA
_TEXT				  16  008D Word	  Public  CODE
